target datalayout = "e-m:e-p270:32:32-p271:32:32-p272:64:64-i64:64-i128:128-f80:128-n8:16:32:64-S128"
target triple = "x86_64-unknown-linux-gnu"

%"class.std::basic_ostream" = type { ptr, %"class.std::basic_ios" }
%"class.std::basic_ios" = type { %"class.std::ios_base", ptr, i8, i8, ptr, ptr, ptr, ptr }
%"class.std::ios_base" = type { ptr, i64, i64, i32, i32, i32, ptr, %"struct.std::ios_base::_Words", [8 x %"struct.std::ios_base::_Words"], i32, ptr, %"class.std::locale" }
%"struct.std::ios_base::_Words" = type { ptr, i64 }
%"class.std::locale" = type { ptr }
%"class.proxygen::GenericFilter" = type { %"class.proxygen::HTTPCodec", %"class.proxygen::HTTPCodec::Callback", i8, i8, ptr, ptr, ptr, ptr, ptr, ptr }
%"class.proxygen::HTTPCodec" = type { ptr }
%"class.proxygen::HTTPCodec::Callback" = type { ptr }

@_ZSt4cout = external global %"class.std::basic_ostream", align 8
@.str.4 = private unnamed_addr constant [13 x i8] c"[Exception] \00", align 1

; Function Attrs: mustprogress uwtable
define void @_ZN8proxygen16HTTPCodecPrinter7onErrorEmRKNS_13HTTPExceptionEb(ptr noundef nonnull align 8 dereferenceable(72) %this, i64 noundef %stream, ptr noundef nonnull align 8 dereferenceable(96) %error, i1 noundef zeroext %newStream) unnamed_addr #4 align 2 {
entry:
  %this.addr = alloca ptr, align 8
  %stream.addr = alloca i64, align 8
  %error.addr = alloca ptr, align 8
  %newStream.addr = alloca i8, align 1
  store ptr %this, ptr %this.addr, align 8
  store i64 %stream, ptr %stream.addr, align 8
  store ptr %error, ptr %error.addr, align 8
  %frombool = zext i1 %newStream to i8
  store i8 %frombool, ptr %newStream.addr, align 1
  %this1 = load ptr, ptr %this.addr, align 8
  %call = call noundef nonnull align 8 dereferenceable(8) ptr @_ZStlsISt11char_traitsIcEERSt13basic_ostreamIcT_ES5_PKc(ptr noundef nonnull align 8 dereferenceable(8) @_ZSt4cout, ptr noundef @.str.4)
  %0 = load ptr, ptr %error.addr, align 8
  %vtable = load ptr, ptr %0, align 8
  %vfn = getelementptr inbounds ptr, ptr %vtable, i64 2
  %1 = load ptr, ptr %vfn, align 8
  %call2 = call noundef ptr %1(ptr noundef nonnull align 8 dereferenceable(48) %0) #3
  %call3 = call noundef nonnull align 8 dereferenceable(8) ptr @_ZStlsISt11char_traitsIcEERSt13basic_ostreamIcT_ES5_PKc(ptr noundef nonnull align 8 dereferenceable(8) %call, ptr noundef %call2)
  %call4 = call noundef nonnull align 8 dereferenceable(8) ptr @_ZNSolsEPFRSoS_E(ptr noundef nonnull align 8 dereferenceable(8) %call3, ptr noundef @_ZSt4endlIcSt11char_traitsIcEERSt13basic_ostreamIT_T0_ES6_)
  %callback_ = getelementptr inbounds %"class.proxygen::GenericFilter", ptr %this1, i32 0, i32 5
  %2 = load ptr, ptr %callback_, align 8
  %3 = load i64, ptr %stream.addr, align 8
  %4 = load ptr, ptr %error.addr, align 8
  %5 = load i8, ptr %newStream.addr, align 1
  %tobool = trunc i8 %5 to i1
  %vtable5 = load ptr, ptr %2, align 8
  %vfn6 = getelementptr inbounds ptr, ptr %vtable5, i64 9
  %6 = load ptr, ptr %vfn6, align 8
  call void %6(ptr noundef nonnull align 8 dereferenceable(8) %2, i64 noundef %3, ptr noundef nonnull align 8 dereferenceable(96) %4, i1 noundef zeroext %tobool)
  ret void
}

; Function Attrs: uwtable
define void @_ZThn8_N8proxygen16HTTPCodecPrinter7onErrorEmRKNS_13HTTPExceptionEb(ptr noundef %this, i64 noundef %stream, ptr noundef nonnull align 8 dereferenceable(96) %error, i1 noundef zeroext %newStream) unnamed_addr #0 align 2 {
entry:
  %this.addr = alloca ptr, align 8
  %stream.addr = alloca i64, align 8
  %error.addr = alloca ptr, align 8
  %newStream.addr = alloca i8, align 1
  store ptr %this, ptr %this.addr, align 8
  store i64 %stream, ptr %stream.addr, align 8
  store ptr %error, ptr %error.addr, align 8
  %frombool = zext i1 %newStream to i8
  store i8 %frombool, ptr %newStream.addr, align 1
  %this1 = load ptr, ptr %this.addr, align 8
  %0 = getelementptr inbounds i8, ptr %this1, i64 -8
  %1 = load i64, ptr %stream.addr, align 8
  %2 = load ptr, ptr %error.addr, align 8
  %3 = load i8, ptr %newStream.addr, align 1
  %tobool = trunc i8 %3 to i1
  tail call void @_ZN8proxygen16HTTPCodecPrinter7onErrorEmRKNS_13HTTPExceptionEb(ptr noundef nonnull align 8 dereferenceable(72) %0, i64 noundef %1, ptr noundef nonnull align 8 dereferenceable(96) %2, i1 noundef zeroext %tobool)
  ret void
}