; Function Attrs: uwtable
define void @_ZThn8_N8proxygen16HTTPCodecPrinter7onErrorEmRKNS_13HTTPExceptionEb(ptr nocapture noundef readonly %this, i64 noundef %stream, ptr noundef nonnull align 8 dereferenceable(96) %error, i1 noundef zeroext %newStream) unnamed_addr #4 align 2 {
entry:
  %call.i = tail call noundef nonnull align 8 dereferenceable(8) ptr @_ZStlsISt11char_traitsIcEERSt13basic_ostreamIcT_ES5_PKc(ptr noundef nonnull align 8 dereferenceable(8) @_ZSt4cout, ptr noundef nonnull @.str.4)
  %vtable.i = load ptr, ptr %error, align 8
  %vfn.i = getelementptr inbounds i8, ptr %vtable.i, i64 16
  %0 = load ptr, ptr %vfn.i, align 8
  %call2.i = tail call noundef ptr %0(ptr noundef nonnull align 8 dereferenceable(48) %error) #17
  %call3.i = tail call noundef nonnull align 8 dereferenceable(8) ptr @_ZStlsISt11char_traitsIcEERSt13basic_ostreamIcT_ES5_PKc(ptr noundef nonnull align 8 dereferenceable(8) %call.i, ptr noundef %call2.i)
  %call4.i = tail call noundef nonnull align 8 dereferenceable(8) ptr @_ZNSolsEPFRSoS_E(ptr noundef nonnull align 8 dereferenceable(8) %call3.i, ptr noundef nonnull @_ZSt4endlIcSt11char_traitsIcEERSt13basic_ostreamIT_T0_ES6_)
  %callback_.i = getelementptr inbounds i8, ptr %this, i64 24
  %1 = load ptr, ptr %callback_.i, align 8
  %vtable5.i = load ptr, ptr %1, align 8
  %vfn6.i = getelementptr inbounds i8, ptr %vtable5.i, i64 72
  %2 = load ptr, ptr %vfn6.i, align 8
  tail call void %2(ptr noundef nonnull align 8 dereferenceable(8) %1, i64 noundef %stream, ptr noundef nonnull align 8 dereferenceable(96) %error, i1 noundef zeroext %newStream)
  ret void
}